Certificate:
    Data:
        Version: 3 (0x2)
        Serial Number:
            a9:92:7d:82:00:f9:31:01
        Signature Algorithm: sha1WithRSAEncryption
        Issuer: C=EU, O=European Commission, OU=DIGIT, CN=rootCAMetadata
        Validity
            Not Before: Jul 29 08:22:51 2019 GMT
            Not After : Jul 28 08:22:51 2029 GMT
        Subject: C=EU, O=European Commission, OU=eID team, CN=intermediateCAMetadata
        Subject Public Key Info:
            Public Key Algorithm: rsaEncryption
                RSA Public-Key: (4096 bit)
                Modulus:
                    00:cb:62:12:c0:13:7e:21:49:71:97:d4:a4:a0:d4:
                    61:af:3f:81:d9:5e:36:41:f3:ea:c4:53:6e:44:55:
                    47:71:82:70:b6:d1:f8:5c:6f:ce:ab:6b:09:78:28:
                    c7:3f:35:34:3f:15:92:e7:9a:a3:6e:92:ac:4d:ff:
                    6b:85:4d:88:4d:73:6e:29:ce:76:f4:9b:e0:fa:e2:
                    6d:8b:cc:03:18:49:98:ce:77:6f:83:00:67:a5:ca:
                    76:81:5d:66:a7:be:08:a6:3c:4c:b0:5e:d6:2f:ee:
                    21:88:5b:78:0a:d8:e8:46:1a:f9:9f:9a:ee:91:5d:
                    3b:f4:ac:a7:a4:35:e6:93:06:23:a5:c1:49:3f:f6:
                    4c:5d:5b:34:9f:b0:4e:26:60:0c:c1:2c:17:0e:74:
                    df:8b:6f:b9:ea:c5:67:ab:7e:d7:e5:0b:66:43:34:
                    4f:16:a5:43:c3:e6:f1:e2:98:e9:26:a8:5a:59:1b:
                    e4:0e:1b:14:87:e2:64:ae:61:51:ac:63:88:69:00:
                    ab:08:9e:aa:29:51:be:ec:8b:36:77:5a:1e:c9:3f:
                    8f:02:e5:dd:7f:72:6f:6d:d0:d5:af:05:c6:e1:29:
                    54:33:73:ae:a8:79:46:0e:b4:de:c2:81:1d:db:34:
                    81:26:d9:ba:8e:c7:21:c1:20:d0:e7:3b:fc:49:c1:
                    e5:1a:17:96:b5:ba:56:73:d3:02:71:ef:36:11:ad:
                    d3:ae:64:16:d3:bb:ef:34:d0:ca:a9:85:36:6b:27:
                    85:0b:9a:d7:72:8c:80:46:f6:d6:af:07:f3:6d:75:
                    31:b4:00:cd:b5:3a:c7:8b:cc:db:06:18:b0:64:8a:
                    b4:7c:af:e8:5b:9a:03:cd:aa:73:83:08:6a:83:aa:
                    50:8b:ce:67:14:50:cb:0d:75:f8:5c:57:e1:f5:9e:
                    5b:9c:8b:b8:be:83:c7:bd:e8:ab:b5:c8:21:bb:fe:
                    70:cc:c1:72:4e:43:f3:d0:cd:27:a6:c6:0f:7e:02:
                    99:24:ec:51:27:8b:21:32:2b:6c:50:6d:aa:17:21:
                    ef:65:cd:df:5b:ab:24:b2:98:8b:84:14:af:b2:0f:
                    b8:62:b1:c8:f9:06:f8:b3:76:b5:ac:48:b9:31:c6:
                    3e:c2:48:11:a7:51:cf:8f:a2:a9:af:0e:d7:5f:0b:
                    89:c7:da:3e:01:f8:20:5b:26:2e:8b:fd:de:08:19:
                    e8:e2:18:24:e5:dc:3f:c3:b4:5e:d7:ca:55:89:76:
                    56:a8:45:9e:52:0e:2e:1b:0d:81:72:7e:aa:ae:4c:
                    c9:b9:0d:5a:9d:5d:b1:19:b3:79:ef:b8:f5:ca:fc:
                    a5:b1:01:99:f9:86:7a:48:26:c6:2b:52:32:e4:40:
                    fc:fe:f3
                Exponent: 65537 (0x10001)
        X509v3 extensions:
            X509v3 Key Usage: critical
                Certificate Sign, CRL Sign
            X509v3 Basic Constraints: critical
                CA:TRUE, pathlen:0
            X509v3 Subject Key Identifier: 
                42:BC:16:6A:C8:6A:9C:97:0F:6C:42:92:DE:67:28:81:A5:2A:B4:50
            X509v3 Authority Key Identifier: 
                keyid:73:0A:E3:B3:05:85:ED:03:69:BA:5E:D9:73:C3:A1:BD:A3:6E:4A:6B

            Authority Information Access: 
                CA Issuers - URI:http://eidas.eu/ca/root-ca.cer

            X509v3 CRL Distribution Points: 

                Full Name:
                  URI:http://eidas.eu/ca/root-ca.crl

    Signature Algorithm: sha1WithRSAEncryption
         b9:b2:e4:7e:b8:8d:d6:85:b9:e5:99:97:9d:34:d0:89:9b:42:
         57:a7:11:61:76:ae:4c:fe:d5:ba:03:65:17:76:51:83:ec:7f:
         96:b9:d8:36:55:5c:94:72:f2:d2:40:6e:56:eb:be:87:2c:ed:
         a8:21:99:17:5a:52:dd:0c:46:db:dc:84:7b:0d:5a:d5:df:bc:
         41:73:2d:e0:6b:82:03:86:42:14:b5:c6:3f:f5:a7:5f:14:43:
         9a:51:59:4f:d4:95:72:e9:f0:37:b3:6c:c1:2b:90:84:49:ac:
         5f:20:4a:cd:2d:ab:27:9c:9b:8d:86:dd:3a:3f:c0:80:60:23:
         74:43:be:04:8f:66:71:a9:f2:2b:bb:8d:6a:0a:72:03:0d:c3:
         97:f8:95:dd:d9:50:bd:ce:19:89:e2:19:57:83:85:be:de:3d:
         4c:67:1b:da:b7:cb:97:64:47:5a:a2:38:63:a5:fa:45:c5:ae:
         c5:0f:6b:2f:b3:92:f5:7c:77:bc:40:91:98:b9:47:2f:8c:5a:
         74:e6:9c:73:80:37:af:fa:5f:e0:b5:03:48:d3:06:e4:d9:66:
         9b:03:59:0e:f5:70:75:95:51:6b:19:62:f5:e1:54:9d:de:f5:
         0c:91:55:74:f0:bd:cc:7b:58:83:a1:c0:63:63:43:fe:d9:0c:
         1b:5b:5e:30:97:38:6e:c1:0a:fd:87:ab:ea:da:01:e4:af:de:
         98:b3:07:4b:d4:66:90:0c:0c:c5:4a:ab:84:27:8c:a2:eb:cc:
         a8:44:41:ee:bc:6e:95:93:e7:20:d3:44:ad:cb:24:df:ef:84:
         b8:dc:15:d4:6e:05:80:50:08:c3:82:28:d2:1d:30:d3:a7:cc:
         f5:e5:6e:26:d6:6f:8c:73:74:61:d9:73:c0:ff:1a:1b:b4:6f:
         41:8b:54:cc:92:cd:cf:8a:53:da:90:9f:1a:89:ef:cc:9d:79:
         3e:02:f7:7f:74:e6:03:c8:01:ed:10:c5:a2:76:28:cb:fd:1a:
         93:94:5a:7d:2b:8f:7e:35:ea:d7:9c:d6:b7:98:ea:fc:03:05:
         4a:82:2f:c9:5f:c6:bf:b8:13:35:5b:e7:7f:09:86:35:e6:10:
         fd:97:39:55:48:98:90:bf:10:07:f7:00:aa:ba:62:d1:06:87:
         01:ff:08:c7:5d:95:ca:45:62:ed:52:7f:5a:ed:83:d1:e3:50:
         06:2c:0f:6e:25:d0:9e:26:4b:21:53:38:d6:4d:e9:a2:ec:33:
         9e:2d:b3:03:2f:5d:cc:c1:69:6b:f3:c7:f2:1a:81:51:6e:57:
         f1:12:92:2f:74:63:be:55:f0:8a:43:c3:65:f8:b1:c7:2e:f1:
         9f:6b:ad:41:f7:be:b4:e4
-----BEGIN CERTIFICATE-----
MIIGCzCCA/OgAwIBAgIJAKmSfYIA+TEBMA0GCSqGSIb3DQEBBQUAMFQxCzAJBgNV
BAYTAkVVMRwwGgYDVQQKDBNFdXJvcGVhbiBDb21taXNzaW9uMQ4wDAYDVQQLDAVE
SUdJVDEXMBUGA1UEAwwOcm9vdENBTWV0YWRhdGEwHhcNMTkwNzI5MDgyMjUxWhcN
MjkwNzI4MDgyMjUxWjBfMQswCQYDVQQGEwJFVTEcMBoGA1UECgwTRXVyb3BlYW4g
Q29tbWlzc2lvbjERMA8GA1UECwwIZUlEIHRlYW0xHzAdBgNVBAMMFmludGVybWVk
aWF0ZUNBTWV0YWRhdGEwggIiMA0GCSqGSIb3DQEBAQUAA4ICDwAwggIKAoICAQDL
YhLAE34hSXGX1KSg1GGvP4HZXjZB8+rEU25EVUdxgnC20fhcb86rawl4KMc/NTQ/
FZLnmqNukqxN/2uFTYhNc24pznb0m+D64m2LzAMYSZjOd2+DAGelynaBXWanvgim
PEywXtYv7iGIW3gK2OhGGvmfmu6RXTv0rKekNeaTBiOlwUk/9kxdWzSfsE4mYAzB
LBcOdN+Lb7nqxWerftflC2ZDNE8WpUPD5vHimOkmqFpZG+QOGxSH4mSuYVGsY4hp
AKsInqopUb7sizZ3Wh7JP48C5d1/cm9t0NWvBcbhKVQzc66oeUYOtN7CgR3bNIEm
2bqOxyHBINDnO/xJweUaF5a1ulZz0wJx7zYRrdOuZBbTu+800MqphTZrJ4ULmtdy
jIBG9tavB/NtdTG0AM21OseLzNsGGLBkirR8r+hbmgPNqnODCGqDqlCLzmcUUMsN
dfhcV+H1nluci7i+g8e96Ku1yCG7/nDMwXJOQ/PQzSemxg9+Apkk7FEniyEyK2xQ
baoXIe9lzd9bqySymIuEFK+yD7hiscj5BvizdrWsSLkxxj7CSBGnUc+PoqmvDtdf
C4nH2j4B+CBbJi6L/d4IGejiGCTl3D/DtF7XylWJdlaoRZ5SDi4bDYFyfqquTMm5
DVqdXbEZs3nvuPXK/KWxAZn5hnpIJsYrUjLkQPz+8wIDAQABo4HUMIHRMA4GA1Ud
DwEB/wQEAwIBBjASBgNVHRMBAf8ECDAGAQH/AgEAMB0GA1UdDgQWBBRCvBZqyGqc
lw9sQpLeZyiBpSq0UDAfBgNVHSMEGDAWgBRzCuOzBYXtA2m6Xtlzw6G9o25KazA6
BggrBgEFBQcBAQQuMCwwKgYIKwYBBQUHMAKGHmh0dHA6Ly9laWRhcy5ldS9jYS9y
b290LWNhLmNlcjAvBgNVHR8EKDAmMCSgIqAghh5odHRwOi8vZWlkYXMuZXUvY2Ev
cm9vdC1jYS5jcmwwDQYJKoZIhvcNAQEFBQADggIBALmy5H64jdaFueWZl5000Imb
QlenEWF2rkz+1boDZRd2UYPsf5a52DZVXJRy8tJAblbrvocs7aghmRdaUt0MRtvc
hHsNWtXfvEFzLeBrggOGQhS1xj/1p18UQ5pRWU/UlXLp8DezbMErkIRJrF8gSs0t
qyecm42G3To/wIBgI3RDvgSPZnGp8iu7jWoKcgMNw5f4ld3ZUL3OGYniGVeDhb7e
PUxnG9q3y5dkR1qiOGOl+kXFrsUPay+zkvV8d7xAkZi5Ry+MWnTmnHOAN6/6X+C1
A0jTBuTZZpsDWQ71cHWVUWsZYvXhVJ3e9QyRVXTwvcx7WIOhwGNjQ/7ZDBtbXjCX
OG7BCv2Hq+raAeSv3pizB0vUZpAMDMVKq4QnjKLrzKhEQe68bpWT5yDTRK3LJN/v
hLjcFdRuBYBQCMOCKNIdMNOnzPXlbibWb4xzdGHZc8D/Ghu0b0GLVMySzc+KU9qQ
nxqJ78ydeT4C93905gPIAe0QxaJ2KMv9GpOUWn0rj3416tec1reY6vwDBUqCL8lf
xr+4EzVb538JhjXmEP2XOVVImJC/EAf3AKq6YtEGhwH/CMddlcpFYu1Sf1rtg9Hj
UAYsD24l0J4mSyFTONZN6aLsM54tswMvXczBaWvzx/IagVFuV/ESki90Y75V8IpD
w2X4sccu8Z9rrUH3vrTk
-----END CERTIFICATE-----
