Certificate:
    Data:
        Version: 3 (0x2)
        Serial Number:
            b7:52:1c:23:d3:1f:57:6b
        Signature Algorithm: sha1WithRSAEncryption
        Issuer: C=EU, O=European Commission, OU=eID team, CN=intermediateCAMetadata
        Validity
            Not Before: Jul 29 08:26:26 2019 GMT
            Not After : Jul 28 08:26:26 2024 GMT
        Subject: C=EU, L=Brussels, O=European Commission, OU=Node, CN=metadataNode
        Subject Public Key Info:
            Public Key Algorithm: rsaEncryption
                RSA Public-Key: (4096 bit)
                Modulus:
                    00:e9:d6:d9:e2:50:82:01:f5:f8:12:c7:e3:a5:33:
                    1e:6d:9c:0d:75:53:01:92:b9:42:89:6d:98:0b:c1:
                    e9:c8:9e:0d:e8:45:74:a9:87:53:83:e8:09:ea:51:
                    f3:7f:6d:0a:de:91:bd:c3:7b:23:f2:74:d2:0c:55:
                    f2:b1:59:a7:ed:3d:2b:1f:3c:fd:98:d9:e5:39:cc:
                    42:87:b1:22:dd:a4:56:c2:3c:af:99:49:62:70:56:
                    4c:4f:bf:8c:2a:0c:1b:f9:a1:7a:e8:45:a8:88:ee:
                    93:bf:31:83:9f:9c:37:a1:f1:25:0c:77:87:f4:35:
                    81:71:37:1d:65:ee:14:4c:46:da:c1:f7:03:75:38:
                    82:ba:62:af:e0:06:56:79:eb:6c:88:e5:aa:b4:b8:
                    e8:bc:24:5c:89:3a:2a:45:d5:df:64:a7:ea:37:1d:
                    9a:f5:58:63:31:66:30:f8:21:83:8f:5a:5e:4d:66:
                    f9:1f:b5:6b:5a:c9:f2:6c:b0:31:d1:a4:ce:55:ed:
                    08:af:15:6b:77:51:3e:0f:7c:0d:48:a7:6f:af:a1:
                    bd:4f:8f:af:a2:08:d9:62:77:9f:17:86:89:29:0e:
                    61:17:90:7b:fe:bb:fb:17:53:d7:60:4e:40:71:b9:
                    53:88:39:d5:c2:c7:28:49:e0:17:d7:91:bf:8d:53:
                    42:0a:c3:46:06:1f:b5:ef:ac:1c:4b:a2:a5:77:18:
                    88:60:47:e6:b3:60:0b:98:c5:1c:fe:55:53:52:66:
                    90:12:b1:ed:3c:89:18:5b:96:25:ac:71:9c:7b:5a:
                    1b:cc:ba:6e:79:fd:30:9e:45:48:79:df:fb:61:76:
                    c1:94:fd:59:77:44:d5:8b:b9:17:a0:bb:ec:39:01:
                    a7:da:46:df:c7:15:f8:80:92:9f:e4:14:f2:32:43:
                    e2:40:14:f3:78:8a:1d:f2:67:8a:88:61:62:72:c3:
                    a0:94:1e:5d:43:f2:e5:85:e9:f1:e1:01:dc:56:0b:
                    69:0a:2c:cc:ec:85:bb:42:27:1e:06:11:89:66:b0:
                    f1:35:c3:f3:96:ab:9b:16:c3:e4:21:cf:29:f3:6e:
                    e7:38:fa:bb:6a:ed:fc:a5:b2:7c:9f:f0:2f:9c:fc:
                    82:30:36:7d:e2:bf:0b:e1:b5:1d:5f:2b:4d:9a:dc:
                    cc:3d:3f:75:7b:b4:e5:88:8a:87:e2:3c:86:e8:74:
                    21:75:11:f3:41:98:22:67:9d:15:26:1f:04:42:ba:
                    b3:36:1a:42:f8:f4:5f:b8:94:9e:a5:6f:12:43:17:
                    69:2c:1d:20:ca:81:d1:6c:1d:d4:c2:61:3d:d1:3f:
                    28:6a:49:43:32:41:99:dd:fe:66:d0:04:22:a0:18:
                    ad:f8:e9
                Exponent: 65537 (0x10001)
        X509v3 extensions:
            X509v3 Key Usage: critical
                Digital Signature
            X509v3 Basic Constraints: 
                CA:FALSE
            X509v3 Extended Key Usage: critical
                Code Signing
            X509v3 Subject Key Identifier: 
                15:FD:57:FD:6D:7D:F2:14:1E:15:6B:6C:92:68:DA:C6:C2:FF:06:25
            X509v3 Authority Key Identifier: 
                keyid:42:BC:16:6A:C8:6A:9C:97:0F:6C:42:92:DE:67:28:81:A5:2A:B4:50

            Authority Information Access: 
                CA Issuers - URI:http://eidas.eu/ca/intermediate-ca.cer

            X509v3 CRL Distribution Points: 

                Full Name:
                  URI:http://eidas.eu/ca/intermediate-ca.crl

    Signature Algorithm: sha1WithRSAEncryption
         70:1c:a9:ca:4d:b7:d3:d9:d5:b3:e8:96:66:e5:26:2e:ff:75:
         70:ab:4d:bf:7e:89:10:95:c5:70:31:0e:9e:63:b2:b6:5e:0e:
         6f:99:65:9a:a8:19:0f:d5:1a:f5:a7:25:a4:f6:5c:27:bc:91:
         14:fd:8e:23:ef:79:ed:14:33:48:b1:a8:e1:1b:ab:7c:c0:7f:
         3e:77:3f:00:02:c7:9a:fc:d6:41:59:d7:d9:7a:99:64:13:cd:
         17:9c:8d:68:ac:87:b6:f6:41:e8:28:65:ab:ee:cd:20:a9:0b:
         70:83:f9:7d:a9:2b:c9:aa:35:43:c7:01:3b:23:d2:31:50:10:
         a7:97:d9:07:ff:c0:e3:b7:d5:cf:9a:df:77:19:34:20:cf:93:
         40:83:69:ad:44:26:3d:9a:44:a3:af:4d:8e:44:ed:4b:53:b4:
         53:8c:8c:41:4b:4a:ee:1c:cc:3c:9c:7b:14:93:aa:fb:6b:cb:
         e3:24:fb:8f:bc:ff:fe:48:66:70:f7:89:d7:91:39:21:27:8a:
         8a:44:fb:b1:b2:51:57:8f:6d:ae:5f:a1:e4:89:ff:8d:4c:67:
         2e:af:ad:da:da:92:c0:c9:26:6e:6e:ba:47:18:41:74:5a:79:
         71:53:99:ef:6c:8d:3b:94:82:e1:fb:ab:0b:1f:a2:ef:1a:54:
         dc:78:1a:0e:c8:c2:2c:42:29:34:34:8b:5e:6d:ac:3d:76:fa:
         d4:9e:94:41:12:37:29:ae:b0:3e:c0:e8:c0:71:bb:fc:cb:29:
         6d:8e:8b:a7:3e:22:ab:09:ca:4b:47:09:13:31:26:af:a8:51:
         5a:a3:08:16:69:73:ae:07:ce:e1:70:21:69:58:48:82:e8:d5:
         22:21:c3:45:be:6b:2c:66:16:de:8c:bb:57:19:8c:8d:79:08:
         e1:47:de:ad:49:37:c4:19:9d:8f:9b:42:7b:71:d4:bf:19:6f:
         08:96:a4:94:61:56:ef:6a:3e:db:88:92:d3:f2:b4:b2:8c:b8:
         11:da:c8:51:9e:4d:d5:b7:29:37:7c:4e:e8:43:56:7b:ef:b1:
         0c:71:b4:61:e1:be:15:58:10:1a:83:52:3d:f8:08:84:67:64:
         08:b3:36:a7:34:b8:67:54:6d:27:fa:e1:78:2d:e3:dc:d3:89:
         b7:a0:90:04:15:a7:05:68:13:ae:36:d7:5e:3a:08:3c:34:19:
         d2:79:79:10:9d:65:d6:67:07:3b:a8:e8:9c:f6:27:39:79:a9:
         5c:2d:56:6b:a6:91:09:6c:44:94:cf:71:86:eb:ae:a7:13:b9:
         9b:3b:35:21:cf:b9:19:ae:6a:6d:63:8b:d0:a4:4e:1d:e5:46:
         78:1c:36:55:2a:1f:de:97
-----BEGIN CERTIFICATE-----
MIIGOjCCBCKgAwIBAgIJALdSHCPTH1drMA0GCSqGSIb3DQEBBQUAMF8xCzAJBgNV
BAYTAkVVMRwwGgYDVQQKDBNFdXJvcGVhbiBDb21taXNzaW9uMREwDwYDVQQLDAhl
SUQgdGVhbTEfMB0GA1UEAwwWaW50ZXJtZWRpYXRlQ0FNZXRhZGF0YTAeFw0xOTA3
MjkwODI2MjZaFw0yNDA3MjgwODI2MjZaMGQxCzAJBgNVBAYTAkVVMREwDwYDVQQH
DAhCcnVzc2VsczEcMBoGA1UECgwTRXVyb3BlYW4gQ29tbWlzc2lvbjENMAsGA1UE
CwwETm9kZTEVMBMGA1UEAwwMbWV0YWRhdGFOb2RlMIICIjANBgkqhkiG9w0BAQEF
AAOCAg8AMIICCgKCAgEA6dbZ4lCCAfX4EsfjpTMebZwNdVMBkrlCiW2YC8HpyJ4N
6EV0qYdTg+gJ6lHzf20K3pG9w3sj8nTSDFXysVmn7T0rHzz9mNnlOcxCh7Ei3aRW
wjyvmUlicFZMT7+MKgwb+aF66EWoiO6TvzGDn5w3ofElDHeH9DWBcTcdZe4UTEba
wfcDdTiCumKv4AZWeetsiOWqtLjovCRciToqRdXfZKfqNx2a9VhjMWYw+CGDj1pe
TWb5H7VrWsnybLAx0aTOVe0IrxVrd1E+D3wNSKdvr6G9T4+vogjZYnefF4aJKQ5h
F5B7/rv7F1PXYE5AcblTiDnVwscoSeAX15G/jVNCCsNGBh+176wcS6KldxiIYEfm
s2ALmMUc/lVTUmaQErHtPIkYW5YlrHGce1obzLpuef0wnkVIed/7YXbBlP1Zd0TV
i7kXoLvsOQGn2kbfxxX4gJKf5BTyMkPiQBTzeIod8meKiGFicsOglB5dQ/Llhenx
4QHcVgtpCizM7IW7QiceBhGJZrDxNcPzlqubFsPkIc8p827nOPq7au38pbJ8n/Av
nPyCMDZ94r8L4bUdXytNmtzMPT91e7TliIqH4jyG6HQhdRHzQZgiZ50VJh8EQrqz
NhpC+PRfuJSepW8SQxdpLB0gyoHRbB3UwmE90T8oaklDMkGZ3f5m0AQioBit+OkC
AwEAAaOB8zCB8DAOBgNVHQ8BAf8EBAMCB4AwCQYDVR0TBAIwADAWBgNVHSUBAf8E
DDAKBggrBgEFBQcDAzAdBgNVHQ4EFgQUFf1X/W198hQeFWtskmjaxsL/BiUwHwYD
VR0jBBgwFoAUQrwWashqnJcPbEKS3mcogaUqtFAwQgYIKwYBBQUHAQEENjA0MDIG
CCsGAQUFBzAChiZodHRwOi8vZWlkYXMuZXUvY2EvaW50ZXJtZWRpYXRlLWNhLmNl
cjA3BgNVHR8EMDAuMCygKqAohiZodHRwOi8vZWlkYXMuZXUvY2EvaW50ZXJtZWRp
YXRlLWNhLmNybDANBgkqhkiG9w0BAQUFAAOCAgEAcBypyk2309nVs+iWZuUmLv91
cKtNv36JEJXFcDEOnmOytl4Ob5llmqgZD9Ua9aclpPZcJ7yRFP2OI+957RQzSLGo
4RurfMB/Pnc/AALHmvzWQVnX2XqZZBPNF5yNaKyHtvZB6Chlq+7NIKkLcIP5fakr
yao1Q8cBOyPSMVAQp5fZB//A47fVz5rfdxk0IM+TQINprUQmPZpEo69NjkTtS1O0
U4yMQUtK7hzMPJx7FJOq+2vL4yT7j7z//khmcPeJ15E5ISeKikT7sbJRV49trl+h
5In/jUxnLq+t2tqSwMkmbm66RxhBdFp5cVOZ72yNO5SC4furCx+i7xpU3HgaDsjC
LEIpNDSLXm2sPXb61J6UQRI3Ka6wPsDowHG7/MspbY6Lpz4iqwnKS0cJEzEmr6hR
WqMIFmlzrgfO4XAhaVhIgujVIiHDRb5rLGYW3oy7VxmMjXkI4UferUk3xBmdj5tC
e3HUvxlvCJaklGFW72o+24iS0/K0soy4EdrIUZ5N1bcpN3xO6ENWe++xDHG0YeG+
FVgQGoNSPfgIhGdkCLM2pzS4Z1RtJ/rheC3j3NOJt6CQBBWnBWgTrjbXXjoIPDQZ
0nl5EJ1l1mcHO6jonPYnOXmpXC1Wa6aRCWxElM9xhuuupxO5mzs1Ic+5Ga5qbWOL
0KROHeVGeBw2VSof3pc=
-----END CERTIFICATE-----
