Certificate:
    Data:
        Version: 3 (0x2)
        Serial Number:
            b7:52:1c:23:d3:1f:57:6b
        Signature Algorithm: sha1WithRSAEncryption
        Issuer: C=EU, O=European Commission, OU=eID team, CN=intermediateCAMetadata
        Validity
            Not Before: Jul 29 12:09:35 2019 GMT
            Not After : Jul 28 12:09:35 2024 GMT
        Subject: C=EU, L=Brussels, O=European Commission, OU=Node, CN=metadataNode
        Subject Public Key Info:
            Public Key Algorithm: rsaEncryption
                RSA Public-Key: (4096 bit)
                Modulus:
                    00:b4:7f:fd:ab:d4:e8:15:7d:8e:9a:85:07:28:00:
                    5b:30:e5:a9:4e:0b:44:bd:ae:35:78:81:4b:c4:7e:
                    80:da:bd:6f:21:87:06:a7:73:ec:12:23:9f:bc:e2:
                    48:3f:24:d6:e1:2a:53:c4:52:a1:2e:bc:d5:70:92:
                    5c:58:f2:5b:9d:9f:29:d9:7e:9c:bd:1e:0e:1c:3d:
                    e3:ef:3b:a7:b8:5a:ff:70:c2:25:db:66:4f:34:dd:
                    a9:92:9d:b0:35:41:70:1f:18:69:33:dc:9d:a1:6d:
                    7c:a0:cd:5b:19:c7:15:6a:01:12:c1:db:de:5b:3d:
                    7c:e0:ac:8c:c8:e3:12:43:3e:1a:43:80:51:01:5a:
                    63:ae:1f:97:45:bf:f4:7c:53:c2:42:a5:86:5d:3d:
                    11:e4:7b:ba:6b:78:dc:8a:52:e8:13:0d:7a:ae:e5:
                    cb:a1:9b:80:ed:ee:cd:32:b6:22:b0:ab:6d:59:93:
                    f8:e6:4d:82:cb:03:3c:ac:f4:9a:c3:59:48:06:b7:
                    48:c5:92:97:a7:a3:bf:ad:6a:85:af:b0:e5:f6:91:
                    f5:34:79:68:e2:e1:3b:1e:03:42:f9:18:fa:56:ce:
                    47:79:b8:0b:6f:d5:48:5b:a3:9c:02:cb:f7:33:59:
                    e4:6b:aa:84:6d:a5:0f:3e:01:2c:27:94:d8:1e:2e:
                    bb:16:e5:99:d2:4d:e5:72:f8:d5:3c:35:f1:48:ed:
                    f9:c0:1e:d2:8a:79:85:25:42:b7:f6:32:58:64:52:
                    0a:83:1f:da:bb:6b:98:a6:96:84:88:f8:08:7c:01:
                    3b:b9:cb:21:f2:3b:8e:68:2f:d6:55:f7:ec:3c:94:
                    3a:6c:aa:16:bb:66:ab:14:91:c5:af:c3:d0:31:9f:
                    4d:c7:7d:2f:c8:fa:64:c1:b7:89:35:2d:b1:f3:5a:
                    3b:58:3f:a2:5b:95:98:0b:bf:92:ab:e4:7e:69:56:
                    68:bb:19:60:3d:c4:2c:b0:e7:cb:29:44:cf:18:4f:
                    16:46:0a:52:a1:f5:6f:9f:c8:a2:8c:2e:1e:75:41:
                    3c:8e:81:46:5d:fc:15:a9:b1:b2:68:c7:65:4c:8a:
                    2c:1d:59:27:fe:cd:90:e6:30:33:a6:c6:2e:52:96:
                    88:6e:19:ec:54:88:55:2e:4c:a0:a2:87:51:63:cc:
                    af:f9:9b:62:bf:5c:e6:17:54:f7:b8:36:71:c5:3e:
                    9d:6f:27:2c:78:00:8d:24:65:27:1a:e0:74:89:39:
                    2e:1d:75:7b:49:43:d1:ac:55:6b:08:a0:69:24:d7:
                    d3:49:34:17:fd:f2:6b:77:51:56:b7:cf:64:8d:ba:
                    7a:11:bd:21:b6:7d:af:5a:3a:33:c4:b1:e4:03:98:
                    39:f2:ef
                Exponent: 65537 (0x10001)
        X509v3 extensions:
            X509v3 Key Usage: critical
                Digital Signature
            X509v3 Basic Constraints: 
                CA:FALSE
            X509v3 Extended Key Usage: critical
                Code Signing
            X509v3 Subject Key Identifier: 
                ED:88:35:D1:89:D6:B1:52:07:77:44:2C:DE:8F:8F:FC:5E:04:7B:09
            X509v3 Authority Key Identifier: 
                keyid:BB:95:C9:31:8E:F3:2E:2D:48:AD:47:F4:34:24:76:C7:21:42:4A:42

            Authority Information Access: 
                CA Issuers - URI:http://eidas.eu/ca/intermediate-ca.cer

            X509v3 CRL Distribution Points: 

                Full Name:
                  URI:http://eidas.eu/ca/intermediate-ca.crl

    Signature Algorithm: sha1WithRSAEncryption
         7a:44:18:af:08:f1:35:3e:45:33:c3:b5:20:6d:01:11:05:50:
         1b:e8:60:3b:2c:43:b5:5c:5f:b2:60:6c:15:9f:f9:13:cf:23:
         70:8f:9b:ce:c1:9d:c4:ec:8d:8c:f9:f9:da:27:45:4d:5e:c3:
         a0:e2:68:64:3d:f9:69:44:0f:a0:ce:a9:51:7d:04:ee:50:93:
         14:33:52:e4:b1:ba:92:1b:dc:e1:57:81:79:a1:12:ab:a9:82:
         02:92:b6:2b:48:78:32:3d:cd:ef:68:24:9f:5c:b2:3a:cc:1b:
         9e:84:dd:24:74:a4:e5:7d:1f:bd:7d:58:54:a9:86:93:96:5b:
         4f:d8:dc:14:5a:41:b2:42:ab:f7:0d:b0:52:19:d2:e2:52:23:
         92:40:5a:8d:cc:46:88:60:f2:52:66:21:d7:a7:08:6f:9f:8f:
         68:69:e5:95:0d:a1:3c:7b:4f:a7:e2:57:7f:7d:36:d5:2d:0a:
         4e:f7:bb:57:bf:30:97:f6:41:9b:62:60:eb:5e:49:b7:58:3a:
         a6:aa:bd:5b:50:ed:79:3f:56:1b:9e:0c:d3:ae:85:29:0d:99:
         a1:79:fc:1b:f6:fe:14:fc:99:94:b1:8a:bf:eb:d1:65:87:24:
         20:08:bb:92:35:ec:ab:7b:d2:80:8e:8d:c8:a0:88:47:27:fb:
         b4:0a:63:5e:7d:33:3d:47:ea:44:91:8c:90:db:75:ca:77:5d:
         1d:62:5b:59:b8:8e:40:89:f6:92:5a:e6:f9:49:f0:5b:89:5e:
         60:1b:3c:16:b9:6b:47:22:9f:52:a6:93:1a:69:12:e0:7f:ab:
         13:f2:7d:da:d2:f1:96:a1:cb:2e:e3:55:2e:07:ea:df:e7:f1:
         64:3c:ba:1a:dd:ed:f4:af:cc:45:4f:3e:db:78:f8:bb:6b:97:
         28:b5:bd:b7:e2:26:69:17:ab:64:3b:f2:2c:98:43:8d:28:a4:
         6f:f0:b2:2b:9c:65:01:b6:b7:3e:69:29:5c:42:27:1c:7b:f3:
         c1:9a:42:b7:34:25:4e:b4:96:d1:2f:7c:27:04:a5:28:52:02:
         1c:85:68:6a:8a:4e:16:db:a4:f8:c9:c4:d9:8a:0b:b1:0e:77:
         00:99:bc:0a:0e:c8:cd:13:35:45:9b:7c:c7:4a:99:22:e0:ce:
         6c:0f:fb:8d:e7:cc:43:2c:55:79:08:ec:70:ad:be:81:40:ef:
         db:9e:58:2b:f9:21:a3:20:40:67:38:74:f2:63:fa:97:cc:76:
         49:cf:c7:f6:78:a9:25:96:bd:20:15:57:a2:69:30:50:33:6c:
         ef:6b:cc:da:ce:6b:1b:15:d4:e8:77:1b:02:ff:ea:23:ed:db:
         04:c0:62:06:57:de:45:c6
-----BEGIN CERTIFICATE-----
MIIGOjCCBCKgAwIBAgIJALdSHCPTH1drMA0GCSqGSIb3DQEBBQUAMF8xCzAJBgNV
BAYTAkVVMRwwGgYDVQQKDBNFdXJvcGVhbiBDb21taXNzaW9uMREwDwYDVQQLDAhl
SUQgdGVhbTEfMB0GA1UEAwwWaW50ZXJtZWRpYXRlQ0FNZXRhZGF0YTAeFw0xOTA3
MjkxMjA5MzVaFw0yNDA3MjgxMjA5MzVaMGQxCzAJBgNVBAYTAkVVMREwDwYDVQQH
DAhCcnVzc2VsczEcMBoGA1UECgwTRXVyb3BlYW4gQ29tbWlzc2lvbjENMAsGA1UE
CwwETm9kZTEVMBMGA1UEAwwMbWV0YWRhdGFOb2RlMIICIjANBgkqhkiG9w0BAQEF
AAOCAg8AMIICCgKCAgEAtH/9q9ToFX2OmoUHKABbMOWpTgtEva41eIFLxH6A2r1v
IYcGp3PsEiOfvOJIPyTW4SpTxFKhLrzVcJJcWPJbnZ8p2X6cvR4OHD3j7zunuFr/
cMIl22ZPNN2pkp2wNUFwHxhpM9ydoW18oM1bGccVagESwdveWz184KyMyOMSQz4a
Q4BRAVpjrh+XRb/0fFPCQqWGXT0R5Hu6a3jcilLoEw16ruXLoZuA7e7NMrYisKtt
WZP45k2CywM8rPSaw1lIBrdIxZKXp6O/rWqFr7Dl9pH1NHlo4uE7HgNC+Rj6Vs5H
ebgLb9VIW6OcAsv3M1nka6qEbaUPPgEsJ5TYHi67FuWZ0k3lcvjVPDXxSO35wB7S
inmFJUK39jJYZFIKgx/au2uYppaEiPgIfAE7ucsh8juOaC/WVffsPJQ6bKoWu2ar
FJHFr8PQMZ9Nx30vyPpkwbeJNS2x81o7WD+iW5WYC7+Sq+R+aVZouxlgPcQssOfL
KUTPGE8WRgpSofVvn8iijC4edUE8joFGXfwVqbGyaMdlTIosHVkn/s2Q5jAzpsYu
UpaIbhnsVIhVLkygoodRY8yv+Ztiv1zmF1T3uDZxxT6dbycseACNJGUnGuB0iTku
HXV7SUPRrFVrCKBpJNfTSTQX/fJrd1FWt89kjbp6Eb0htn2vWjozxLHkA5g58u8C
AwEAAaOB8zCB8DAOBgNVHQ8BAf8EBAMCB4AwCQYDVR0TBAIwADAWBgNVHSUBAf8E
DDAKBggrBgEFBQcDAzAdBgNVHQ4EFgQU7Yg10YnWsVIHd0Qs3o+P/F4EewkwHwYD
VR0jBBgwFoAUu5XJMY7zLi1IrUf0NCR2xyFCSkIwQgYIKwYBBQUHAQEENjA0MDIG
CCsGAQUFBzAChiZodHRwOi8vZWlkYXMuZXUvY2EvaW50ZXJtZWRpYXRlLWNhLmNl
cjA3BgNVHR8EMDAuMCygKqAohiZodHRwOi8vZWlkYXMuZXUvY2EvaW50ZXJtZWRp
YXRlLWNhLmNybDANBgkqhkiG9w0BAQUFAAOCAgEAekQYrwjxNT5FM8O1IG0BEQVQ
G+hgOyxDtVxfsmBsFZ/5E88jcI+bzsGdxOyNjPn52idFTV7DoOJoZD35aUQPoM6p
UX0E7lCTFDNS5LG6khvc4VeBeaESq6mCApK2K0h4Mj3N72gkn1yyOswbnoTdJHSk
5X0fvX1YVKmGk5ZbT9jcFFpBskKr9w2wUhnS4lIjkkBajcxGiGDyUmYh16cIb5+P
aGnllQ2hPHtPp+JXf3021S0KTve7V78wl/ZBm2Jg615Jt1g6pqq9W1DteT9WG54M
066FKQ2ZoXn8G/b+FPyZlLGKv+vRZYckIAi7kjXsq3vSgI6NyKCIRyf7tApjXn0z
PUfqRJGMkNt1ynddHWJbWbiOQIn2klrm+UnwW4leYBs8FrlrRyKfUqaTGmkS4H+r
E/J92tLxlqHLLuNVLgfq3+fxZDy6Gt3t9K/MRU8+23j4u2uXKLW9t+ImaRerZDvy
LJhDjSikb/CyK5xlAba3PmkpXEInHHvzwZpCtzQlTrSW0S98JwSlKFICHIVoaopO
Ftuk+MnE2YoLsQ53AJm8Cg7IzRM1RZt8x0qZIuDObA/7jefMQyxVeQjscK2+gUDv
255YK/khoyBAZzh08mP6l8x2Sc/H9nipJZa9IBVXomkwUDNs72vM2s5rGxXU6Hcb
Av/qI+3bBMBiBlfeRcY=
-----END CERTIFICATE-----
